target datalayout = "e-m:e-p270:32:32-p271:32:32-p272:64:64-i64:64-i128:128-f80:128-n8:16:32:64-S128"
target triple = "x86_64-pc-linux-gnu"

%class.RandomNumber = type { ptr, ptr, %"class.std::map", i64 }
%"class.std::map" = type { %"class.std::_Rb_tree" }
%"class.std::_Rb_tree" = type { %"struct.std::_Rb_tree<RNDNUM_GENERATOR, std::pair<const RNDNUM_GENERATOR, AbsRndNumGenerator *>, std::_Select1st<std::pair<const RNDNUM_GENERATOR, AbsRndNumGenerator *>>, std::less<RNDNUM_GENERATOR>>::_Rb_tree_impl" }
%"struct.std::_Rb_tree<RNDNUM_GENERATOR, std::pair<const RNDNUM_GENERATOR, AbsRndNumGenerator *>, std::_Select1st<std::pair<const RNDNUM_GENERATOR, AbsRndNumGenerator *>>, std::less<RNDNUM_GENERATOR>>::_Rb_tree_impl" = type { %"struct.std::_Rb_tree_key_compare", %"struct.std::_Rb_tree_header" }
%"struct.std::_Rb_tree_key_compare" = type { %"struct.std::less" }
%"struct.std::less" = type { i8 }
%"struct.std::_Rb_tree_header" = type { %"struct.std::_Rb_tree_node_base", i64 }
%"struct.std::_Rb_tree_node_base" = type { i32, ptr, ptr, ptr }

; Function Attrs: mustprogress nounwind uwtable
define linkonce_odr dso_local noundef i32 @_ZN18AbsRndNumGenerator5countEv() #5 comdat align 2 {
  ret i32 2
}

; Function Attrs: mustprogress uwtable
define dso_local void @_ZN12RandomNumber26make_all_rndnum_generatorsEm(ptr noundef nonnull align 8 dereferenceable(72) %0, i64 noundef %1) #4 align 2 {
  %3 = alloca ptr, align 8
  %4 = alloca i64, align 8
  %5 = alloca i32, align 4
  %6 = alloca ptr, align 8
  %7 = alloca i32, align 4
  %8 = alloca i32, align 4
  store ptr %0, ptr %3, align 8
  store i64 %1, ptr %4, align 8
  %9 = load ptr, ptr %3, align 8
  %10 = call noundef i32 @_ZN18AbsRndNumGenerator5countEv()
  store i32 %10, ptr %5, align 4
  store i32 0, ptr %7, align 4
  br label %11

11:                                               ; preds = %23, %2
  %12 = load i32, ptr %7, align 4
  %13 = load i32, ptr %5, align 4
  %14 = icmp ult i32 %12, %13
  br i1 %14, label %15, label %26

15:                                               ; preds = %11
  %16 = load i32, ptr %7, align 4
  store i32 %16, ptr %8, align 4
  %17 = load i32, ptr %8, align 4
  %18 = load i64, ptr %4, align 8
  %19 = call noundef ptr @_ZN18AbsRndNumGenerator21make_rndnum_generatorE16RNDNUM_GENERATORm(i32 noundef %17, i64 noundef %18)
  store ptr %19, ptr %6, align 8
  %20 = load ptr, ptr %6, align 8
  %21 = getelementptr inbounds %class.RandomNumber, ptr %9, i32 0, i32 2
  %22 = call noundef nonnull align 8 dereferenceable(8) ptr @_ZNSt3mapI16RNDNUM_GENERATORP18AbsRndNumGeneratorSt4lessIS0_ESaISt4pairIKS0_S2_EEEixERS6_(ptr noundef nonnull align 8 dereferenceable(48) %21, ptr noundef nonnull align 4 dereferenceable(4) %8)
  store ptr %20, ptr %22, align 8
  br label %23

23:                                               ; preds = %15
  %24 = load i32, ptr %7, align 4
  %25 = add i32 %24, 1
  store i32 %25, ptr %7, align 4
  br label %11, !llvm.loop !7

26:                                               ; preds = %11
  ret void
}