; Function Attrs: mustprogress uwtable
define dso_local void @_ZN12RandomNumber26make_all_rndnum_generatorsEm(ptr noundef nonnull align 8 dereferenceable(72) %0, i64 noundef %1) local_unnamed_addr #3 align 2 {
.critedge:
  %2 = alloca i32, align 4
  %3 = getelementptr inbounds i8, ptr %0, i64 16
  store i32 0, ptr %2, align 4
  %4 = tail call noundef ptr @_ZN18AbsRndNumGenerator21make_rndnum_generatorE16RNDNUM_GENERATORm(i32 noundef 0, i64 noundef %1)
  %5 = call noundef nonnull align 8 dereferenceable(8) ptr @_ZNSt3mapI16RNDNUM_GENERATORP18AbsRndNumGeneratorSt4lessIS0_ESaISt4pairIKS0_S2_EEEixERS6_(ptr noundef nonnull align 8 dereferenceable(48) %3, ptr noundef nonnull align 4 dereferenceable(4) %2)
  store ptr %4, ptr %5, align 8
  store i32 1, ptr %2, align 4
  %6 = call noundef ptr @_ZN18AbsRndNumGenerator21make_rndnum_generatorE16RNDNUM_GENERATORm(i32 noundef 1, i64 noundef %1)
  %7 = call noundef nonnull align 8 dereferenceable(8) ptr @_ZNSt3mapI16RNDNUM_GENERATORP18AbsRndNumGeneratorSt4lessIS0_ESaISt4pairIKS0_S2_EEEixERS6_(ptr noundef nonnull align 8 dereferenceable(48) %3, ptr noundef nonnull align 4 dereferenceable(4) %2)
  store ptr %6, ptr %7, align 8
  ret void
}